; Function Attrs: mustprogress uwtable
define dso_local noundef ptr @_ZN4Luau15getTypeUserDataEP9lua_Statei(ptr noundef %0, i32 noundef %1) local_unnamed_addr #2 {
  %3 = tail call noundef ptr @_Z20lua_touserdatataggedP9lua_Stateii(ptr noundef %0, i32 noundef %1, i32 noundef 42)
  %.not.not = icmp eq ptr %3, null
  br i1 %.not.not, label %4, label %5

4:                                                ; preds = %2
  tail call void @_Z15luaL_typeerrorLP9lua_StateiPKc(ptr noundef %0, i32 noundef %1, ptr noundef nonnull @.str.67) #29
  unreachable

5:                                                ; preds = %2
  %6 = load ptr, ptr %3, align 8, !tbaa !29
  ret ptr %6
}